; Function Attrs: mustprogress uwtable
define void @_ZN15AlignPairWidget15keyReleaseEventEP9QKeyEvent(ptr noundef nonnull align 8 dereferenceable(1367) %0, ptr nocapture noundef %1) unnamed_addr #9 align 2 {
  %3 = getelementptr inbounds i8, ptr %1, i64 18
  %4 = load i16, ptr %3, align 2
  %5 = and i16 %4, -5
  store i16 %5, ptr %3, align 2
  %6 = getelementptr inbounds i8, ptr %1, i64 40
  %7 = getelementptr inbounds i8, ptr %0, i64 1264
  br label %8

8:                                                ; preds = %2, %27
  %9 = phi i1 [ true, %2 ], [ false, %27 ]
  %indvars.iv = phi i64 [ 0, %2 ], [ 1, %27 ]
  %10 = load i32, ptr %6, align 8
  %11 = icmp eq i32 %10, 16777249
  br i1 %11, label %12, label %15

12:                                               ; preds = %8
  %13 = getelementptr inbounds [2 x ptr], ptr %7, i64 0, i64 %indvars.iv
  %14 = load ptr, ptr %13, align 8
  tail call void @_ZN3vcg9Trackball8ButtonUpENS0_6ButtonE(ptr noundef nonnull align 8 dereferenceable(597) %14, i32 noundef 32)
  %.pr = load i32, ptr %6, align 8
  br label %15

15:                                               ; preds = %12, %8
  %16 = phi i32 [ %.pr, %12 ], [ %10, %8 ]
  %17 = icmp eq i32 %16, 16777248
  br i1 %17, label %18, label %21

18:                                               ; preds = %15
  %19 = getelementptr inbounds [2 x ptr], ptr %7, i64 0, i64 %indvars.iv
  %20 = load ptr, ptr %19, align 8
  tail call void @_ZN3vcg9Trackball8ButtonUpENS0_6ButtonE(ptr noundef nonnull align 8 dereferenceable(597) %20, i32 noundef 16)
  %.pre = load i32, ptr %6, align 8
  br label %21

21:                                               ; preds = %18, %15
  %22 = phi i32 [ %.pre, %18 ], [ %16, %15 ]
  %23 = icmp eq i32 %22, 16777251
  br i1 %23, label %24, label %27

24:                                               ; preds = %21
  %25 = getelementptr inbounds [2 x ptr], ptr %7, i64 0, i64 %indvars.iv
  %26 = load ptr, ptr %25, align 8
  tail call void @_ZN3vcg9Trackball8ButtonUpENS0_6ButtonE(ptr noundef nonnull align 8 dereferenceable(597) %26, i32 noundef 64)
  br label %27

27:                                               ; preds = %21, %24
  br i1 %9, label %8, label %28, !llvm.loop !29

28:                                               ; preds = %27
  tail call void @_ZN7QWidget6updateEv(ptr noundef nonnull align 8 dereferenceable(48) %0)
  ret void
}